; Function Attrs: mustprogress uwtable
define hidden void @_ZN3sls10arith_baseI13checked_int64ILb1EEE10check_realEP4expr(ptr noundef nonnull readnone align 8 captures(none) dereferenceable(672) %0, ptr noundef nonnull %1) local_unnamed_addr #3 align 2 {
  %3 = tail call noundef ptr @_ZNK4expr8get_sortEv(ptr noundef nonnull align 4 dereferenceable(16) %1)
  %4 = getelementptr inbounds nuw i8, ptr %3, i64 24
  %5 = load ptr, ptr %4, align 8, !tbaa !17
  %6 = icmp eq ptr %5, null
  br i1 %6, label %_ZNK17arith_recognizers7is_realEPK4expr.exit.thread, label %_ZNK4decl13get_family_idEv.exit.thread.i.i.i.i

_ZNK4decl13get_family_idEv.exit.thread.i.i.i.i:   ; preds = %2
  %7 = load i32, ptr %5, align 8, !tbaa !23
  %8 = icmp eq i32 %7, 5
  br i1 %8, label %_ZNK17arith_recognizers7is_realEPK4expr.exit, label %_ZNK17arith_recognizers7is_realEPK4expr.exit.thread

_ZNK17arith_recognizers7is_realEPK4expr.exit:     ; preds = %_ZNK4decl13get_family_idEv.exit.thread.i.i.i.i
  %9 = getelementptr inbounds nuw i8, ptr %5, i64 4
  %10 = load i32, ptr %9, align 4, !tbaa !28
  %11 = icmp eq i32 %10, 0
  br i1 %11, label %12, label %_ZNK17arith_recognizers7is_realEPK4expr.exit.thread

12:                                               ; preds = %_ZNK17arith_recognizers7is_realEPK4expr.exit
  %13 = tail call ptr @__cxa_allocate_exception(i64 8) #26
  store ptr getelementptr inbounds nuw inrange(-16, 32) (i8, ptr @_ZTV18overflow_exception, i64 16), ptr %13, align 8, !tbaa !13
  tail call void @__cxa_throw(ptr nonnull %13, ptr nonnull @_ZTI18overflow_exception, ptr nonnull @_ZNSt9exceptionD2Ev) #27
  unreachable

_ZNK17arith_recognizers7is_realEPK4expr.exit.thread: ; preds = %2, %_ZNK4decl13get_family_idEv.exit.thread.i.i.i.i, %_ZNK17arith_recognizers7is_realEPK4expr.exit
  ret void
}